target datalayout = "e-m:e-p270:32:32-p271:32:32-p272:64:64-i64:64-i128:128-f80:128-n8:16:32:64-S128"
target triple = "x86_64-pc-linux-gnu"

%struct.TclStubs = type { i32, ptr, ptr, ptr, ptr, ptr, ptr, ptr, ptr, ptr, ptr, ptr, ptr, ptr, ptr, ptr, ptr, ptr, ptr, ptr, ptr, ptr, ptr, ptr, ptr, ptr, ptr, ptr, ptr, ptr, ptr, ptr, ptr, ptr, ptr, ptr, ptr, ptr, ptr, ptr, ptr, ptr, ptr, ptr, ptr, ptr, ptr, ptr, ptr, ptr, ptr, ptr, ptr, ptr, ptr, ptr, ptr, ptr, ptr, ptr, ptr, ptr, ptr, ptr, ptr, ptr, ptr, ptr, ptr, ptr, ptr, ptr, ptr, ptr, ptr, ptr, ptr, ptr, ptr, ptr, ptr, ptr, ptr, ptr, ptr, ptr, ptr, ptr, ptr, ptr, ptr, ptr, ptr, ptr, ptr, ptr, ptr, ptr, ptr, ptr, ptr, ptr, ptr, ptr, ptr, ptr, ptr, ptr, ptr, ptr, ptr, ptr, ptr, ptr, ptr, ptr, ptr, ptr, ptr, ptr, ptr, ptr, ptr, ptr, ptr, ptr, ptr, ptr, ptr, ptr, ptr, ptr, ptr, ptr, ptr, ptr, ptr, ptr, ptr, ptr, ptr, ptr, ptr, ptr, ptr, ptr, ptr, ptr, ptr, ptr, ptr, ptr, ptr, ptr, ptr, ptr, ptr, ptr, ptr, ptr, ptr, ptr, ptr, ptr, ptr, ptr, ptr, ptr, ptr, ptr, ptr, ptr, ptr, ptr, ptr, ptr, ptr, ptr, ptr, ptr, ptr, ptr, ptr, ptr, ptr, ptr, ptr, ptr, ptr, ptr, ptr, ptr, ptr, ptr, ptr, ptr, ptr, ptr, ptr, ptr, ptr, ptr, ptr, ptr, ptr, ptr, ptr, ptr, ptr, ptr, ptr, ptr, ptr, ptr, ptr, ptr, ptr, ptr, ptr, ptr, ptr, ptr, ptr, ptr, ptr, ptr, ptr, ptr, ptr, ptr, ptr, ptr, ptr, ptr, ptr, ptr, ptr, ptr, ptr, ptr, ptr, ptr, ptr, ptr, ptr, ptr, ptr, ptr, ptr, ptr, ptr, ptr, ptr, ptr, ptr, ptr, ptr, ptr, ptr, ptr, ptr, ptr, ptr, ptr, ptr, ptr, ptr, ptr, ptr, ptr, ptr, ptr, ptr, ptr, ptr, ptr, ptr, ptr, ptr, ptr, ptr, ptr, ptr, ptr, ptr, ptr, ptr, ptr, ptr, ptr, ptr, ptr, ptr, ptr, ptr, ptr, ptr, ptr, ptr, ptr, ptr, ptr, ptr, ptr, ptr, ptr, ptr, ptr, ptr, ptr, ptr, ptr, ptr, ptr, ptr, ptr, ptr, ptr, ptr, ptr, ptr, ptr, ptr, ptr, ptr, ptr, ptr, ptr, ptr, ptr, ptr, ptr, ptr, ptr, ptr, ptr, ptr, ptr, ptr, ptr, ptr, ptr, ptr, ptr, ptr, ptr, ptr, ptr, ptr, ptr, ptr, ptr, ptr, ptr, ptr, ptr, ptr, ptr, ptr, ptr, ptr, ptr, ptr, ptr, ptr, ptr, ptr, ptr, ptr, ptr, ptr, ptr, ptr, ptr, ptr, ptr, ptr, ptr, ptr, ptr, ptr, ptr, ptr, ptr, ptr, ptr, ptr, ptr, ptr, ptr, ptr, ptr, ptr, ptr, ptr, ptr, ptr, ptr, ptr, ptr, ptr, ptr, ptr, ptr, ptr, ptr, ptr, ptr, ptr, ptr, ptr, ptr, ptr, ptr, ptr, ptr, ptr, ptr, ptr, ptr, ptr, ptr, ptr, ptr, ptr, ptr, ptr, ptr, ptr, ptr, ptr, ptr, ptr, ptr, ptr, ptr, ptr, ptr, ptr, ptr, ptr, ptr, ptr, ptr, ptr, ptr, ptr, ptr, ptr, ptr, ptr, ptr, ptr, ptr, ptr, ptr, ptr, ptr, ptr, ptr, ptr, ptr, ptr, ptr, ptr, ptr, ptr, ptr, ptr, ptr, ptr, ptr, ptr, ptr, ptr, ptr, ptr, ptr, ptr, ptr, ptr, ptr, ptr, ptr, ptr, ptr, ptr, ptr, ptr, ptr, ptr, ptr, ptr, ptr, ptr, ptr, ptr, ptr, ptr, ptr, ptr, ptr, ptr, ptr, ptr, ptr, ptr, ptr, ptr, ptr, ptr, ptr, ptr, ptr, ptr, ptr, ptr, ptr, ptr, ptr, ptr, ptr, ptr, ptr, ptr, ptr, ptr, ptr, ptr, ptr, ptr, ptr, ptr, ptr, ptr, ptr, ptr, ptr, ptr, ptr, ptr, ptr, ptr, ptr, ptr, ptr, ptr, ptr, ptr, ptr, ptr, ptr, ptr, ptr, ptr, ptr, ptr, ptr, ptr, ptr, ptr, ptr, ptr, ptr, ptr, ptr, ptr, ptr, ptr, ptr, ptr, ptr, ptr, ptr, ptr, ptr, ptr, ptr, ptr, ptr, ptr, ptr, ptr, ptr, ptr, ptr, ptr, ptr, ptr, ptr, ptr, ptr, ptr, ptr, ptr, ptr, ptr, ptr, ptr, ptr, ptr, ptr, ptr, ptr, ptr, ptr, ptr, ptr, ptr, ptr, ptr, ptr, ptr, ptr, ptr, ptr, ptr, ptr, ptr, ptr, ptr, ptr, ptr, ptr, ptr, ptr, ptr, ptr, ptr, ptr, ptr, ptr, ptr, ptr, ptr, ptr, ptr, ptr, ptr, ptr, ptr, ptr, ptr, ptr, ptr, ptr, ptr, ptr, ptr, ptr, ptr, ptr, ptr, ptr, ptr, ptr, ptr, ptr, ptr, ptr, ptr, ptr, ptr }
%struct.SqliteDb = type { ptr, ptr, ptr, ptr, ptr, ptr, ptr, ptr, ptr, ptr, i32, ptr, ptr, ptr, ptr, ptr, ptr, ptr, ptr, i32, ptr, ptr, ptr, i32, i32, ptr, i32, i32, i32, i32, i32, i32, i32 }
%struct.DbEvalContext = type { ptr, ptr, ptr, ptr, i32, i32, ptr, ptr }
%struct.Tcl_Obj = type { i32, ptr, i32, ptr, %union.anon }
%union.anon = type { %struct.anon }
%struct.anon = type { ptr, ptr }
%struct.SqlPreparedStmt = type { ptr, ptr, ptr, i32, ptr, i32, ptr }

@tclStubsPtr = external global ptr, align 8
@.str.224 = private unnamed_addr constant [2 x i8] c"*\00", align 1

; Function Attrs: nounwind uwtable
define internal void @dbEvalRowInfo(ptr noundef %0, ptr noundef %1, ptr noundef %2) #0 {
  %4 = alloca ptr, align 8
  %5 = alloca ptr, align 8
  %6 = alloca ptr, align 8
  %7 = alloca ptr, align 8
  %8 = alloca i32, align 4
  %9 = alloca i32, align 4
  %10 = alloca ptr, align 8
  %11 = alloca ptr, align 8
  %12 = alloca ptr, align 8
  %13 = alloca ptr, align 8
  %14 = alloca ptr, align 8
  store ptr %0, ptr %4, align 8, !tbaa !107
  store ptr %1, ptr %5, align 8, !tbaa !164
  store ptr %2, ptr %6, align 8, !tbaa !166
  %15 = load ptr, ptr %4, align 8, !tbaa !107
  %16 = getelementptr inbounds nuw %struct.DbEvalContext, ptr %15, i32 0, i32 7
  %17 = load ptr, ptr %16, align 8, !tbaa !168
  %18 = icmp eq ptr null, %17
  br i1 %18, label %19, label %148

19:                                               ; preds = %3
  call void @llvm.lifetime.start.p0(i64 8, ptr %7) #10
  %20 = load ptr, ptr %4, align 8, !tbaa !107
  %21 = getelementptr inbounds nuw %struct.DbEvalContext, ptr %20, i32 0, i32 3
  %22 = load ptr, ptr %21, align 8, !tbaa !159
  %23 = getelementptr inbounds nuw %struct.SqlPreparedStmt, ptr %22, i32 0, i32 2
  %24 = load ptr, ptr %23, align 8, !tbaa !160
  store ptr %24, ptr %7, align 8, !tbaa !87
  call void @llvm.lifetime.start.p0(i64 4, ptr %8) #10
  call void @llvm.lifetime.start.p0(i64 4, ptr %9) #10
  call void @llvm.lifetime.start.p0(i64 8, ptr %10) #10
  store ptr null, ptr %10, align 8, !tbaa !16
  %25 = load ptr, ptr %7, align 8, !tbaa !87
  %26 = call i32 @sqlite3_column_count(ptr noundef %25)
  store i32 %26, ptr %9, align 4, !tbaa !8
  %27 = load ptr, ptr %4, align 8, !tbaa !107
  %28 = getelementptr inbounds nuw %struct.DbEvalContext, ptr %27, i32 0, i32 4
  store i32 %26, ptr %28, align 8, !tbaa !169
  %29 = load i32, ptr %9, align 4, !tbaa !8
  %30 = icmp sgt i32 %29, 0
  br i1 %30, label %31, label %79

31:                                               ; preds = %19
  %32 = load ptr, ptr %6, align 8, !tbaa !166
  %33 = icmp ne ptr %32, null
  br i1 %33, label %39, label %34

34:                                               ; preds = %31
  %35 = load ptr, ptr %4, align 8, !tbaa !107
  %36 = getelementptr inbounds nuw %struct.DbEvalContext, ptr %35, i32 0, i32 6
  %37 = load ptr, ptr %36, align 8, !tbaa !157
  %38 = icmp ne ptr %37, null
  br i1 %38, label %39, label %79

39:                                               ; preds = %34, %31
  %40 = load ptr, ptr @tclStubsPtr, align 8, !tbaa !10
  %41 = getelementptr inbounds nuw %struct.TclStubs, ptr %40, i32 0, i32 5
  %42 = load ptr, ptr %41, align 8, !tbaa !29
  %43 = load i32, ptr %9, align 4, !tbaa !8
  %44 = sext i32 %43 to i64
  %45 = mul i64 8, %44
  %46 = trunc i64 %45 to i32
  %47 = call ptr %42(i32 noundef %46)
  store ptr %47, ptr %10, align 8, !tbaa !16
  store i32 0, ptr %8, align 4, !tbaa !8
  br label %48

48:                                               ; preds = %72, %39
  %49 = load i32, ptr %8, align 4, !tbaa !8
  %50 = load i32, ptr %9, align 4, !tbaa !8
  %51 = icmp slt i32 %49, %50
  br i1 %51, label %52, label %75

52:                                               ; preds = %48
  %53 = load ptr, ptr @tclStubsPtr, align 8, !tbaa !10
  %54 = getelementptr inbounds nuw %struct.TclStubs, ptr %53, i32 0, i32 58
  %55 = load ptr, ptr %54, align 8, !tbaa !81
  %56 = load ptr, ptr %7, align 8, !tbaa !87
  %57 = load i32, ptr %8, align 4, !tbaa !8
  %58 = call ptr @sqlite3_column_name(ptr noundef %56, i32 noundef %57)
  %59 = call ptr %55(ptr noundef %58, i32 noundef -1)
  %60 = load ptr, ptr %10, align 8, !tbaa !16
  %61 = load i32, ptr %8, align 4, !tbaa !8
  %62 = sext i32 %61 to i64
  %63 = getelementptr inbounds ptr, ptr %60, i64 %62
  store ptr %59, ptr %63, align 8, !tbaa !21
  %64 = load ptr, ptr %10, align 8, !tbaa !16
  %65 = load i32, ptr %8, align 4, !tbaa !8
  %66 = sext i32 %65 to i64
  %67 = getelementptr inbounds ptr, ptr %64, i64 %66
  %68 = load ptr, ptr %67, align 8, !tbaa !21
  %69 = getelementptr inbounds nuw %struct.Tcl_Obj, ptr %68, i32 0, i32 0
  %70 = load i32, ptr %69, align 8, !tbaa !70
  %71 = add nsw i32 %70, 1
  store i32 %71, ptr %69, align 8, !tbaa !70
  br label %72

72:                                               ; preds = %52
  %73 = load i32, ptr %8, align 4, !tbaa !8
  %74 = add nsw i32 %73, 1
  store i32 %74, ptr %8, align 4, !tbaa !8
  br label %48, !llvm.loop !170

75:                                               ; preds = %48
  %76 = load ptr, ptr %10, align 8, !tbaa !16
  %77 = load ptr, ptr %4, align 8, !tbaa !107
  %78 = getelementptr inbounds nuw %struct.DbEvalContext, ptr %77, i32 0, i32 7
  store ptr %76, ptr %78, align 8, !tbaa !168
  br label %79

79:                                               ; preds = %75, %34, %19
  %80 = load ptr, ptr %4, align 8, !tbaa !107
  %81 = getelementptr inbounds nuw %struct.DbEvalContext, ptr %80, i32 0, i32 6
  %82 = load ptr, ptr %81, align 8, !tbaa !157
  %83 = icmp ne ptr %82, null
  br i1 %83, label %84, label %147

84:                                               ; preds = %79
  call void @llvm.lifetime.start.p0(i64 8, ptr %11) #10
  %85 = load ptr, ptr %4, align 8, !tbaa !107
  %86 = getelementptr inbounds nuw %struct.DbEvalContext, ptr %85, i32 0, i32 0
  %87 = load ptr, ptr %86, align 8, !tbaa !153
  %88 = getelementptr inbounds nuw %struct.SqliteDb, ptr %87, i32 0, i32 1
  %89 = load ptr, ptr %88, align 8, !tbaa !45
  store ptr %89, ptr %11, align 8, !tbaa !3
  call void @llvm.lifetime.start.p0(i64 8, ptr %12) #10
  %90 = load ptr, ptr @tclStubsPtr, align 8, !tbaa !10
  %91 = getelementptr inbounds nuw %struct.TclStubs, ptr %90, i32 0, i32 57
  %92 = load ptr, ptr %91, align 8, !tbaa !104
  %93 = call ptr %92()
  store ptr %93, ptr %12, align 8, !tbaa !21
  call void @llvm.lifetime.start.p0(i64 8, ptr %13) #10
  %94 = load ptr, ptr @tclStubsPtr, align 8, !tbaa !10
  %95 = getelementptr inbounds nuw %struct.TclStubs, ptr %94, i32 0, i32 58
  %96 = load ptr, ptr %95, align 8, !tbaa !81
  %97 = call ptr %96(ptr noundef @.str.224, i32 noundef -1)
  store ptr %97, ptr %13, align 8, !tbaa !21
  store i32 0, ptr %8, align 4, !tbaa !8
  br label %98

98:                                               ; preds = %114, %84
  %99 = load i32, ptr %8, align 4, !tbaa !8
  %100 = load i32, ptr %9, align 4, !tbaa !8
  %101 = icmp slt i32 %99, %100
  br i1 %101, label %102, label %117

102:                                              ; preds = %98
  %103 = load ptr, ptr @tclStubsPtr, align 8, !tbaa !10
  %104 = getelementptr inbounds nuw %struct.TclStubs, ptr %103, i32 0, i32 46
  %105 = load ptr, ptr %104, align 8, !tbaa !80
  %106 = load ptr, ptr %11, align 8, !tbaa !3
  %107 = load ptr, ptr %12, align 8, !tbaa !21
  %108 = load ptr, ptr %10, align 8, !tbaa !16
  %109 = load i32, ptr %8, align 4, !tbaa !8
  %110 = sext i32 %109 to i64
  %111 = getelementptr inbounds ptr, ptr %108, i64 %110
  %112 = load ptr, ptr %111, align 8, !tbaa !21
  %113 = call i32 %105(ptr noundef %106, ptr noundef %107, ptr noundef %112)
  br label %114

114:                                              ; preds = %102
  %115 = load i32, ptr %8, align 4, !tbaa !8
  %116 = add nsw i32 %115, 1
  store i32 %116, ptr %8, align 4, !tbaa !8
  br label %98, !llvm.loop !171

117:                                              ; preds = %98
  %118 = load ptr, ptr %13, align 8, !tbaa !21
  %119 = getelementptr inbounds nuw %struct.Tcl_Obj, ptr %118, i32 0, i32 0
  %120 = load i32, ptr %119, align 8, !tbaa !70
  %121 = add nsw i32 %120, 1
  store i32 %121, ptr %119, align 8, !tbaa !70
  %122 = load ptr, ptr @tclStubsPtr, align 8, !tbaa !10
  %123 = getelementptr inbounds nuw %struct.TclStubs, ptr %122, i32 0, i32 198
  %124 = load ptr, ptr %123, align 8, !tbaa !172
  %125 = load ptr, ptr %11, align 8, !tbaa !3
  %126 = load ptr, ptr %4, align 8, !tbaa !107
  %127 = getelementptr inbounds nuw %struct.DbEvalContext, ptr %126, i32 0, i32 6
  %128 = load ptr, ptr %127, align 8, !tbaa !157
  %129 = load ptr, ptr %13, align 8, !tbaa !21
  %130 = load ptr, ptr %12, align 8, !tbaa !21
  %131 = call ptr %124(ptr noundef %125, ptr noundef %128, ptr noundef %129, ptr noundef %130, i32 noundef 0)
  br label %132

132:                                              ; preds = %117
  call void @llvm.lifetime.start.p0(i64 8, ptr %14) #10
  %133 = load ptr, ptr %13, align 8, !tbaa !21
  store ptr %133, ptr %14, align 8, !tbaa !21
  %134 = load ptr, ptr %14, align 8, !tbaa !21
  %135 = getelementptr inbounds nuw %struct.Tcl_Obj, ptr %134, i32 0, i32 0
  %136 = load i32, ptr %135, align 8, !tbaa !70
  %137 = add nsw i32 %136, -1
  store i32 %137, ptr %135, align 8, !tbaa !70
  %138 = icmp sle i32 %136, 1
  br i1 %138, label %139, label %144

139:                                              ; preds = %132
  %140 = load ptr, ptr @tclStubsPtr, align 8, !tbaa !10
  %141 = getelementptr inbounds nuw %struct.TclStubs, ptr %140, i32 0, i32 32
  %142 = load ptr, ptr %141, align 8, !tbaa !73
  %143 = load ptr, ptr %14, align 8, !tbaa !21
  call void %142(ptr noundef %143)
  br label %144

144:                                              ; preds = %139, %132
  call void @llvm.lifetime.end.p0(i64 8, ptr %14) #10
  br label %145

145:                                              ; preds = %144
  br label %146

146:                                              ; preds = %145
  call void @llvm.lifetime.end.p0(i64 8, ptr %13) #10
  call void @llvm.lifetime.end.p0(i64 8, ptr %12) #10
  call void @llvm.lifetime.end.p0(i64 8, ptr %11) #10
  br label %147

147:                                              ; preds = %146, %79
  call void @llvm.lifetime.end.p0(i64 8, ptr %10) #10
  call void @llvm.lifetime.end.p0(i64 4, ptr %9) #10
  call void @llvm.lifetime.end.p0(i64 4, ptr %8) #10
  call void @llvm.lifetime.end.p0(i64 8, ptr %7) #10
  br label %148

148:                                              ; preds = %147, %3
  %149 = load ptr, ptr %6, align 8, !tbaa !166
  %150 = icmp ne ptr %149, null
  br i1 %150, label %151, label %156

151:                                              ; preds = %148
  %152 = load ptr, ptr %4, align 8, !tbaa !107
  %153 = getelementptr inbounds nuw %struct.DbEvalContext, ptr %152, i32 0, i32 7
  %154 = load ptr, ptr %153, align 8, !tbaa !168
  %155 = load ptr, ptr %6, align 8, !tbaa !166
  store ptr %154, ptr %155, align 8, !tbaa !16
  br label %156

156:                                              ; preds = %151, %148
  %157 = load ptr, ptr %5, align 8, !tbaa !164
  %158 = icmp ne ptr %157, null
  br i1 %158, label %159, label %164

159:                                              ; preds = %156
  %160 = load ptr, ptr %4, align 8, !tbaa !107
  %161 = getelementptr inbounds nuw %struct.DbEvalContext, ptr %160, i32 0, i32 4
  %162 = load i32, ptr %161, align 8, !tbaa !169
  %163 = load ptr, ptr %5, align 8, !tbaa !164
  store i32 %162, ptr %163, align 4, !tbaa !8
  br label %164

164:                                              ; preds = %159, %156
  ret void
}