; Function Attrs: nounwind uwtable
define internal fastcc void @dbEvalRowInfo(ptr noundef captures(none) %0, ptr noundef writeonly captures(address_is_null) %1, ptr noundef writeonly captures(address_is_null) %2) unnamed_addr #0 {
  %4 = getelementptr inbounds nuw i8, ptr %0, i64 48
  %5 = load ptr, ptr %4, align 8, !tbaa !163
  %6 = icmp eq ptr %5, null
  br i1 %6, label %7, label %68

7:                                                ; preds = %3
  %8 = getelementptr inbounds nuw i8, ptr %0, i64 24
  %9 = load ptr, ptr %8, align 8, !tbaa !139
  %10 = getelementptr inbounds nuw i8, ptr %9, i64 16
  %11 = load ptr, ptr %10, align 8, !tbaa !133
  %12 = tail call i32 @sqlite3_column_count(ptr noundef %11) #14
  %13 = getelementptr inbounds nuw i8, ptr %0, i64 32
  store i32 %12, ptr %13, align 8, !tbaa !164
  %14 = icmp sgt i32 %12, 0
  br i1 %14, label %15, label %33

15:                                               ; preds = %7
  %.not = icmp eq ptr %2, null
  br i1 %.not, label %16, label %.lr.ph.preheader

16:                                               ; preds = %15
  %17 = getelementptr inbounds nuw i8, ptr %0, i64 40
  %18 = load ptr, ptr %17, align 8, !tbaa !138
  %.not45 = icmp eq ptr %18, null
  br i1 %.not45, label %33, label %.lr.ph.preheader

.lr.ph.preheader:                                 ; preds = %15, %16
  %19 = load ptr, ptr @tclStubsPtr, align 8, !tbaa !3
  %20 = getelementptr inbounds nuw i8, ptr %19, i64 40
  %21 = load ptr, ptr %20, align 8, !tbaa !23
  %22 = shl i32 %12, 3
  %23 = tail call ptr %21(i32 noundef %22) #14
  %wide.trip.count = zext nneg i32 %12 to i64
  br label %.lr.ph

.lr.ph:                                           ; preds = %.lr.ph.preheader, %.lr.ph
  %indvars.iv = phi i64 [ 0, %.lr.ph.preheader ], [ %indvars.iv.next, %.lr.ph ]
  %24 = load ptr, ptr @tclStubsPtr, align 8, !tbaa !3
  %25 = getelementptr inbounds nuw i8, ptr %24, i64 464
  %26 = load ptr, ptr %25, align 8, !tbaa !72
  %27 = trunc nuw nsw i64 %indvars.iv to i32
  %28 = tail call ptr @sqlite3_column_name(ptr noundef %11, i32 noundef %27) #14
  %29 = tail call ptr %26(ptr noundef %28, i32 noundef -1) #14
  %30 = getelementptr inbounds nuw ptr, ptr %23, i64 %indvars.iv
  store ptr %29, ptr %30, align 8, !tbaa !15
  %31 = load i32, ptr %29, align 8, !tbaa !61
  %32 = add nsw i32 %31, 1
  store i32 %32, ptr %29, align 8, !tbaa !61
  %indvars.iv.next = add nuw nsw i64 %indvars.iv, 1
  %exitcond.not = icmp eq i64 %indvars.iv.next, %wide.trip.count
  br i1 %exitcond.not, label %._crit_edge, label %.lr.ph, !llvm.loop !169

._crit_edge:                                      ; preds = %.lr.ph
  store ptr %23, ptr %4, align 8, !tbaa !163
  br label %33

33:                                               ; preds = %._crit_edge, %16, %7
  %.041 = phi ptr [ %23, %._crit_edge ], [ null, %16 ], [ null, %7 ]
  %34 = getelementptr inbounds nuw i8, ptr %0, i64 40
  %35 = load ptr, ptr %34, align 8, !tbaa !138
  %.not46 = icmp eq ptr %35, null
  br i1 %.not46, label %68, label %36

36:                                               ; preds = %33
  %37 = load ptr, ptr %0, align 8, !tbaa !90
  %38 = getelementptr inbounds nuw i8, ptr %37, i64 8
  %39 = load ptr, ptr %38, align 8, !tbaa !39
  %40 = load ptr, ptr @tclStubsPtr, align 8, !tbaa !3
  %41 = getelementptr inbounds nuw i8, ptr %40, i64 456
  %42 = load ptr, ptr %41, align 8, !tbaa !99
  %43 = tail call ptr %42() #14
  %44 = load ptr, ptr @tclStubsPtr, align 8, !tbaa !3
  %45 = getelementptr inbounds nuw i8, ptr %44, i64 464
  %46 = load ptr, ptr %45, align 8, !tbaa !72
  %47 = tail call ptr %46(ptr noundef nonnull @.str.224, i32 noundef -1) #14
  br i1 %14, label %.lr.ph52.preheader, label %._crit_edge53

.lr.ph52.preheader:                               ; preds = %36
  %wide.trip.count58 = zext nneg i32 %12 to i64
  br label %.lr.ph52

.lr.ph52:                                         ; preds = %.lr.ph52.preheader, %.lr.ph52
  %indvars.iv55 = phi i64 [ 0, %.lr.ph52.preheader ], [ %indvars.iv.next56, %.lr.ph52 ]
  %48 = load ptr, ptr @tclStubsPtr, align 8, !tbaa !3
  %49 = getelementptr inbounds nuw i8, ptr %48, i64 368
  %50 = load ptr, ptr %49, align 8, !tbaa !71
  %51 = getelementptr inbounds nuw ptr, ptr %.041, i64 %indvars.iv55
  %52 = load ptr, ptr %51, align 8, !tbaa !15
  %53 = tail call i32 %50(ptr noundef %39, ptr noundef %43, ptr noundef %52) #14
  %indvars.iv.next56 = add nuw nsw i64 %indvars.iv55, 1
  %exitcond59.not = icmp eq i64 %indvars.iv.next56, %wide.trip.count58
  br i1 %exitcond59.not, label %._crit_edge53, label %.lr.ph52, !llvm.loop !170

._crit_edge53:                                    ; preds = %.lr.ph52, %36
  %54 = load i32, ptr %47, align 8, !tbaa !61
  %55 = add nsw i32 %54, 1
  store i32 %55, ptr %47, align 8, !tbaa !61
  %56 = load ptr, ptr @tclStubsPtr, align 8, !tbaa !3
  %57 = getelementptr inbounds nuw i8, ptr %56, i64 1584
  %58 = load ptr, ptr %57, align 8, !tbaa !171
  %59 = load ptr, ptr %34, align 8, !tbaa !138
  %60 = tail call ptr %58(ptr noundef %39, ptr noundef %59, ptr noundef nonnull %47, ptr noundef %43, i32 noundef 0) #14
  %61 = load i32, ptr %47, align 8, !tbaa !61
  %62 = add nsw i32 %61, -1
  store i32 %62, ptr %47, align 8, !tbaa !61
  %63 = icmp slt i32 %61, 2
  br i1 %63, label %64, label %68

64:                                               ; preds = %._crit_edge53
  %65 = load ptr, ptr @tclStubsPtr, align 8, !tbaa !3
  %66 = getelementptr inbounds nuw i8, ptr %65, i64 256
  %67 = load ptr, ptr %66, align 8, !tbaa !64
  tail call void %67(ptr noundef nonnull %47) #14
  br label %68

68:                                               ; preds = %33, %64, %._crit_edge53, %3
  %.not47 = icmp eq ptr %2, null
  br i1 %.not47, label %71, label %69

69:                                               ; preds = %68
  %70 = load ptr, ptr %4, align 8, !tbaa !163
  store ptr %70, ptr %2, align 8, !tbaa !172
  br label %71

71:                                               ; preds = %69, %68
  %.not48 = icmp eq ptr %1, null
  br i1 %.not48, label %75, label %72

72:                                               ; preds = %71
  %73 = getelementptr inbounds nuw i8, ptr %0, i64 32
  %74 = load i32, ptr %73, align 8, !tbaa !164
  store i32 %74, ptr %1, align 4, !tbaa !12
  br label %75

75:                                               ; preds = %72, %71
  ret void
}